target datalayout = "e-m:e-p270:32:32-p271:32:32-p272:64:64-i64:64-i128:128-f80:128-n8:16:32:64-S128"
target triple = "x86_64-pc-linux-gnu"

@.str.3 = private unnamed_addr constant [22 x i8] c"%s: _encode() failure\00", align 1
@__func__.cred_p_create_net_cred = private unnamed_addr constant [23 x i8] c"cred_p_create_net_cred\00", align 1

; Function Attrs: nounwind uwtable
define dso_local ptr @cred_p_create_net_cred(ptr noundef %0, i16 noundef zeroext %1) #0 {
  %3 = alloca ptr, align 8
  %4 = alloca i16, align 2
  %5 = alloca ptr, align 8
  %6 = alloca ptr, align 8
  store ptr %0, ptr %3, align 8
  store i16 %1, ptr %4, align 2
  call void @llvm.lifetime.start.p0(i64 8, ptr %5) #5
  call void @llvm.lifetime.start.p0(i64 8, ptr %6) #5
  %7 = call ptr @slurm_init_buf(i32 noundef 16384)
  store ptr %7, ptr %6, align 8
  %8 = load ptr, ptr %3, align 8
  %9 = load ptr, ptr %6, align 8
  %10 = load i16, ptr %4, align 2
  call void @slurm_pack_node_alias_addrs(ptr noundef %8, ptr noundef %9, i16 noundef zeroext %10)
  %11 = load ptr, ptr %6, align 8
  %12 = call ptr @_encode(ptr noundef %11)
  store ptr %12, ptr %5, align 8
  %13 = icmp ne ptr %12, null
  br i1 %13, label %16, label %14

14:                                               ; preds = %2
  %15 = call i32 (ptr, ...) @slurm_error(ptr noundef @.str.3, ptr noundef @__func__.cred_p_create_net_cred)
  br label %16

16:                                               ; preds = %14, %2
  %17 = load ptr, ptr %6, align 8
  call void @slurm_free_buf(ptr noundef %17)
  %18 = load ptr, ptr %5, align 8
  call void @llvm.lifetime.end.p0(i64 8, ptr %6) #5
  call void @llvm.lifetime.end.p0(i64 8, ptr %5) #5
  ret ptr %18
}