; Function Attrs: nounwind uwtable
define dso_local ptr @cred_p_create_net_cred(ptr noundef %0, i16 noundef zeroext %1) local_unnamed_addr #0 {
  %3 = tail call ptr @slurm_init_buf(i32 noundef 16384) #7
  tail call void @slurm_pack_node_alias_addrs(ptr noundef %0, ptr noundef %3, i16 noundef zeroext %1) #7
  %4 = tail call fastcc ptr @_encode(ptr noundef %3)
  %.not = icmp eq ptr %4, null
  br i1 %.not, label %5, label %7

5:                                                ; preds = %2
  %6 = tail call i32 (ptr, ...) @slurm_error(ptr noundef nonnull @.str.3, ptr noundef nonnull @__func__.cred_p_create_net_cred) #7
  br label %7

7:                                                ; preds = %5, %2
  tail call void @slurm_free_buf(ptr noundef %3) #7
  ret ptr %4
}